; ModuleID = '10/2050.c'
source_filename = "10/2050.c"
target datalayout = "e-m:e-p270:32:32-p271:32:32-p272:64:64-i64:64-f80:128-n8:16:32:64-S128"
target triple = "x86_64-pc-linux-gnu"

@a = dso_local global <{ i32, [25 x i32] }> <{ i32 2100000000, [25 x i32] zeroinitializer }>, align 16
@.str = private unnamed_addr constant [3 x i8] c"%d\00", align 1
@N = common dso_local global i32 0, align 4

; Function Attrs: noinline nounwind uwtable
define dso_local void @main() #0 {
  %1 = alloca i32, align 4
  %2 = call i32 (i8*, ...) @__isoc99_scanf(i8* getelementptr inbounds ([3 x i8], [3 x i8]* @.str, i64 0, i64 0), i32* @N)
  store i32 1, i32* %1, align 4
  br label %3

3:                                                ; preds = %12, %0
  %4 = load i32, i32* %1, align 4
  %5 = load i32, i32* @N, align 4
  %6 = icmp sle i32 %4, %5
  br i1 %6, label %7, label %15

7:                                                ; preds = %3
  %8 = load i32, i32* %1, align 4
  %9 = sext i32 %8 to i64
  %10 = getelementptr inbounds [26 x i32], [26 x i32]* bitcast (<{ i32, [25 x i32] }>* @a to [26 x i32]*), i64 0, i64 %9
  %11 = call i32 (i8*, ...) @__isoc99_scanf(i8* getelementptr inbounds ([3 x i8], [3 x i8]* @.str, i64 0, i64 0), i32* %10)
  br label %12

12:                                               ; preds = %7
  %13 = load i32, i32* %1, align 4
  %14 = add nsw i32 %13, 1
  store i32 %14, i32* %1, align 4
  br label %3

15:                                               ; preds = %3
  %16 = call i32 @f(i32 0)
  %17 = sub nsw i32 %16, 1
  %18 = call i32 (i8*, ...) @printf(i8* getelementptr inbounds ([3 x i8], [3 x i8]* @.str, i64 0, i64 0), i32 %17)
  ret void
}

declare dso_local i32 @__isoc99_scanf(i8*, ...) #1

declare dso_local i32 @printf(i8*, ...) #1

; Function Attrs: noinline nounwind uwtable
define dso_local i32 @f(i32 %0) #0 {
  %2 = alloca i32, align 4
  %3 = alloca i32, align 4
  %4 = alloca i32, align 4
  %5 = alloca i32, align 4
  store i32 %0, i32* %2, align 4
  store i32 0, i32* %5, align 4
  %6 = load i32, i32* %2, align 4
  %7 = add nsw i32 %6, 1
  store i32 %7, i32* %3, align 4
  br label %8

8:                                                ; preds = %35, %1
  %9 = load i32, i32* %3, align 4
  %10 = load i32, i32* @N, align 4
  %11 = icmp sle i32 %9, %10
  br i1 %11, label %12, label %38

12:                                               ; preds = %8
  %13 = load i32, i32* %3, align 4
  %14 = sext i32 %13 to i64
  %15 = getelementptr inbounds [26 x i32], [26 x i32]* bitcast (<{ i32, [25 x i32] }>* @a to [26 x i32]*), i64 0, i64 %14
  %16 = load i32, i32* %15, align 4
  %17 = load i32, i32* %2, align 4
  %18 = sext i32 %17 to i64
  %19 = getelementptr inbounds [26 x i32], [26 x i32]* bitcast (<{ i32, [25 x i32] }>* @a to [26 x i32]*), i64 0, i64 %18
  %20 = load i32, i32* %19, align 4
  %21 = icmp sle i32 %16, %20
  br i1 %21, label %22, label %34

22:                                               ; preds = %12
  %23 = load i32, i32* %3, align 4
  %24 = call i32 @f(i32 %23)
  store i32 %24, i32* %4, align 4
  %25 = load i32, i32* %5, align 4
  %26 = load i32, i32* %4, align 4
  %27 = icmp sge i32 %25, %26
  br i1 %27, label %28, label %30

28:                                               ; preds = %22
  %29 = load i32, i32* %5, align 4
  br label %32

30:                                               ; preds = %22
  %31 = load i32, i32* %4, align 4
  br label %32

32:                                               ; preds = %30, %28
  %33 = phi i32 [ %29, %28 ], [ %31, %30 ]
  store i32 %33, i32* %5, align 4
  br label %34

34:                                               ; preds = %32, %12
  br label %35

35:                                               ; preds = %34
  %36 = load i32, i32* %3, align 4
  %37 = add nsw i32 %36, 1
  store i32 %37, i32* %3, align 4
  br label %8

38:                                               ; preds = %8
  %39 = load i32, i32* %5, align 4
  %40 = add nsw i32 %39, 1
  ret i32 %40
}


!llvm.module.flags = !{!0}
!llvm.ident = !{!1}

!0 = !{i32 1, !"wchar_size", i32 4}
!1 = !{!"clang version 10.0.0-4ubuntu1 "}
